target datalayout = "e-m:e-p270:32:32-p271:32:32-p272:64:64-i64:64-i128:128-f80:128-n8:16:32:64-S128"
target triple = "x86_64-pc-linux-gnu"

%struct.nstime_t = type { i64 }
%struct.tsd_s = type { i8, i8, i8, i64, i64, i64, i64, i64, i64, i64, i64, i64, i64, i64, i64, i64, ptr, i64, i64, i64, ptr, ptr, %struct.ticker_geom_s, i8, %struct.tsd_binshards_s, %struct.tsd_link_t, i8, %struct.peak_s, %struct.activity_callback_thunk_s, %struct.tcache_slow_s, %struct.rtree_ctx_s, %struct.atomic_u8_t, i64, i64, i64, i64, %struct.tcache_s, %struct.witness_tsd_s }
%struct.ticker_geom_s = type { i32, i32 }
%struct.tsd_binshards_s = type { [36 x i8] }
%struct.tsd_link_t = type { ptr, ptr }
%struct.peak_s = type { i64, i64 }
%struct.activity_callback_thunk_s = type { ptr, ptr }
%struct.tcache_slow_s = type { %struct.anon.3, %struct.cache_bin_array_descriptor_s, ptr, i32, %struct.nstime_t, i32, i32, i32, [36 x %struct.cache_bin_fill_ctl_s], [36 x i8], [36 x i8], ptr, ptr }
%struct.anon.3 = type { ptr, ptr }
%struct.cache_bin_array_descriptor_s = type { %struct.anon.4, ptr }
%struct.anon.4 = type { ptr, ptr }
%struct.cache_bin_fill_ctl_s = type { i8, i8 }
%struct.rtree_ctx_s = type { [16 x %struct.rtree_ctx_cache_elm_s], [8 x %struct.rtree_ctx_cache_elm_s] }
%struct.rtree_ctx_cache_elm_s = type { i64, ptr }
%struct.atomic_u8_t = type { i8 }
%struct.tcache_s = type { ptr, [73 x %struct.cache_bin_s] }
%struct.cache_bin_s = type { ptr, %struct.cache_bin_stats_s, i16, i16, i16, %struct.cache_bin_info_s }
%struct.cache_bin_stats_s = type { i64 }
%struct.cache_bin_info_s = type { i16 }
%struct.witness_tsd_s = type { %struct.witness_list_t, i8 }
%struct.witness_list_t = type { ptr }

; Function Attrs: alwaysinline nounwind uwtable
define internal ptr @tsd_thread_deallocatedp_get_unsafe(ptr noundef %0) #2 {
  %2 = alloca ptr, align 8
  store ptr %0, ptr %2, align 8, !tbaa !4
  %3 = load ptr, ptr %2, align 8, !tbaa !4
  %4 = getelementptr inbounds nuw %struct.tsd_s, ptr %3, i32 0, i32 34
  ret ptr %4
}

; Function Attrs: alwaysinline nounwind uwtable
define internal zeroext i8 @tsd_state_get(ptr noundef %0) #2 {
  %2 = alloca ptr, align 8
  store ptr %0, ptr %2, align 8, !tbaa !4
  %3 = load ptr, ptr %2, align 8, !tbaa !4
  %4 = getelementptr inbounds nuw %struct.tsd_s, ptr %3, i32 0, i32 31
  %5 = load i8, ptr %4, align 8, !tbaa !56
  ret i8 %5
}

; Function Attrs: alwaysinline nounwind uwtable
define internal ptr @tsd_thread_deallocatedp_get(ptr noundef %0) #2 {
  %2 = alloca ptr, align 8
  %3 = alloca i8, align 1
  store ptr %0, ptr %2, align 8, !tbaa !4
  call void @llvm.lifetime.start.p0(i64 1, ptr %3) #13
  %4 = load ptr, ptr %2, align 8, !tbaa !4
  %5 = call zeroext i8 @tsd_state_get(ptr noundef %4)
  store i8 %5, ptr %3, align 1, !tbaa !56
  br label %6

6:                                                ; preds = %1
  br label %7

7:                                                ; preds = %6
  br label %8

8:                                                ; preds = %7
  %9 = load ptr, ptr %2, align 8, !tbaa !4
  %10 = call ptr @tsd_thread_deallocatedp_get_unsafe(ptr noundef %9)
  call void @llvm.lifetime.end.p0(i64 1, ptr %3) #13
  ret ptr %10
}

; Function Attrs: nounwind uwtable
define internal i32 @thread_deallocatedp_ctl(ptr noundef %0, ptr noundef %1, i64 noundef %2, ptr noundef %3, ptr noundef %4, ptr noundef %5, i64 noundef %6) #0 {
  %8 = alloca i32, align 4
  %9 = alloca ptr, align 8
  %10 = alloca ptr, align 8
  %11 = alloca i64, align 8
  %12 = alloca ptr, align 8
  %13 = alloca ptr, align 8
  %14 = alloca ptr, align 8
  %15 = alloca i64, align 8
  %16 = alloca i32, align 4
  %17 = alloca ptr, align 8
  %18 = alloca i64, align 8
  %19 = alloca i32, align 4
  store ptr %0, ptr %9, align 8, !tbaa !4
  store ptr %1, ptr %10, align 8, !tbaa !12
  store i64 %2, ptr %11, align 8, !tbaa !14
  store ptr %3, ptr %12, align 8, !tbaa !11
  store ptr %4, ptr %13, align 8, !tbaa !12
  store ptr %5, ptr %14, align 8, !tbaa !11
  store i64 %6, ptr %15, align 8, !tbaa !14
  call void @llvm.lifetime.start.p0(i64 4, ptr %16) #13
  call void @llvm.lifetime.start.p0(i64 8, ptr %17) #13
  br label %20

20:                                               ; preds = %7
  %21 = load ptr, ptr %14, align 8, !tbaa !11
  %22 = icmp ne ptr %21, null
  br i1 %22, label %26, label %23

23:                                               ; preds = %20
  %24 = load i64, ptr %15, align 8, !tbaa !14
  %25 = icmp ne i64 %24, 0
  br i1 %25, label %26, label %27

26:                                               ; preds = %23, %20
  store i32 1, ptr %16, align 4, !tbaa !20
  br label %63

27:                                               ; preds = %23
  br label %28

28:                                               ; preds = %27
  br label %29

29:                                               ; preds = %28
  %30 = load ptr, ptr %9, align 8, !tbaa !4
  %31 = call ptr @tsd_thread_deallocatedp_get(ptr noundef %30)
  store ptr %31, ptr %17, align 8, !tbaa !12
  br label %32

32:                                               ; preds = %29
  %33 = load ptr, ptr %12, align 8, !tbaa !11
  %34 = icmp ne ptr %33, null
  br i1 %34, label %35, label %60

35:                                               ; preds = %32
  %36 = load ptr, ptr %13, align 8, !tbaa !12
  %37 = icmp ne ptr %36, null
  br i1 %37, label %38, label %60

38:                                               ; preds = %35
  %39 = load ptr, ptr %13, align 8, !tbaa !12
  %40 = load i64, ptr %39, align 8, !tbaa !14
  %41 = icmp ne i64 %40, 8
  br i1 %41, label %42, label %57

42:                                               ; preds = %38
  call void @llvm.lifetime.start.p0(i64 8, ptr %18) #13
  %43 = load ptr, ptr %13, align 8, !tbaa !12
  %44 = load i64, ptr %43, align 8, !tbaa !14
  %45 = icmp ule i64 8, %44
  br i1 %45, label %46, label %47

46:                                               ; preds = %42
  br label %50

47:                                               ; preds = %42
  %48 = load ptr, ptr %13, align 8, !tbaa !12
  %49 = load i64, ptr %48, align 8, !tbaa !14
  br label %50

50:                                               ; preds = %47, %46
  %51 = phi i64 [ 8, %46 ], [ %49, %47 ]
  store i64 %51, ptr %18, align 8, !tbaa !14
  %52 = load ptr, ptr %12, align 8, !tbaa !11
  %53 = load i64, ptr %18, align 8, !tbaa !14
  call void @llvm.memcpy.p0.p0.i64(ptr align 1 %52, ptr align 1 %17, i64 %53, i1 false)
  %54 = load i64, ptr %18, align 8, !tbaa !14
  %55 = load ptr, ptr %13, align 8, !tbaa !12
  store i64 %54, ptr %55, align 8, !tbaa !14
  store i32 22, ptr %16, align 4, !tbaa !20
  store i32 4, ptr %19, align 4
  call void @llvm.lifetime.end.p0(i64 8, ptr %18) #13
  %56 = load i32, ptr %19, align 4
  switch i32 %56, label %65 [
    i32 4, label %63
  ]

57:                                               ; preds = %38
  %58 = load ptr, ptr %17, align 8, !tbaa !12
  %59 = load ptr, ptr %12, align 8, !tbaa !11
  store ptr %58, ptr %59, align 8, !tbaa !12
  br label %60

60:                                               ; preds = %57, %35, %32
  br label %61

61:                                               ; preds = %60
  br label %62

62:                                               ; preds = %61
  store i32 0, ptr %16, align 4, !tbaa !20
  br label %63

63:                                               ; preds = %62, %50, %26
  %64 = load i32, ptr %16, align 4, !tbaa !20
  store i32 %64, ptr %8, align 4
  store i32 1, ptr %19, align 4
  br label %65

65:                                               ; preds = %63, %50
  call void @llvm.lifetime.end.p0(i64 8, ptr %17) #13
  call void @llvm.lifetime.end.p0(i64 4, ptr %16) #13
  %66 = load i32, ptr %8, align 4
  ret i32 %66
}